
colors.o:     file format elf64-x86-64


Disassembly of section .text:

0000000000000000 <init_colors>:
   0:	55                   	push   %rbp
   1:	48 89 e5             	mov    %rsp,%rbp
   4:	e8 00 00 00 00       	call   9 <init_colors+0x9>
   9:	e8 00 00 00 00       	call   e <init_colors+0xe>
   e:	ba 00 00 00 00       	mov    $0x0,%edx
  13:	be 00 00 00 00       	mov    $0x0,%esi
  18:	bf 01 00 00 00       	mov    $0x1,%edi
  1d:	e8 00 00 00 00       	call   22 <init_colors+0x22>
  22:	ba 00 00 00 00       	mov    $0x0,%edx
  27:	be 02 00 00 00       	mov    $0x2,%esi
  2c:	bf 02 00 00 00       	mov    $0x2,%edi
  31:	e8 00 00 00 00       	call   36 <init_colors+0x36>
  36:	ba 00 00 00 00       	mov    $0x0,%edx
  3b:	be 07 00 00 00       	mov    $0x7,%esi
  40:	bf 03 00 00 00       	mov    $0x3,%edi
  45:	e8 00 00 00 00       	call   4a <init_colors+0x4a>
  4a:	90                   	nop
  4b:	5d                   	pop    %rbp
  4c:	c3                   	ret

000000000000004d <get_attr_pair_given_dist>:
  4d:	55                   	push   %rbp
  4e:	48 89 e5             	mov    %rsp,%rbp
  51:	48 83 ec 18          	sub    $0x18,%rsp
  55:	e8 00 00 00 00       	call   5a <get_attr_pair_given_dist+0xd>
  5a:	89 7d ec             	mov    %edi,-0x14(%rbp)
  5d:	89 75 e8             	mov    %esi,-0x18(%rbp)
  60:	48 8b 15 00 00 00 00 	mov    0x0(%rip),%rdx        # 67 <get_attr_pair_given_dist+0x1a>
  67:	8b 4d e8             	mov    -0x18(%rbp),%ecx
  6a:	48 63 c9             	movslq %ecx,%rcx
  6d:	48 c1 e1 02          	shl    $0x2,%rcx
  71:	48 83 e9 20          	sub    $0x20,%rcx
  75:	48 01 ca             	add    %rcx,%rdx
  78:	8b 12                	mov    (%rdx),%edx
  7a:	89 55 fc             	mov    %edx,-0x4(%rbp)
  7d:	83 7d ec 00          	cmpl   $0x0,-0x14(%rbp)
  81:	74 08                	je     8b <get_attr_pair_given_dist+0x3e>
  83:	83 7d ec 01          	cmpl   $0x1,-0x14(%rbp)
  87:	74 23                	je     ac <get_attr_pair_given_dist+0x5f>
  89:	eb 35                	jmp    c0 <get_attr_pair_given_dist+0x73>
  8b:	48 ba 00 00 00 00 ff 	movabs $0xffffffff00000000,%rdx
  92:	ff ff ff 
  95:	48 21 d0             	and    %rdx,%rax
  98:	80 cc 03             	or     $0x3,%ah
  9b:	89 c2                	mov    %eax,%edx
  9d:	48 b8 00 00 00 00 00 	movabs $0x20000000000000,%rax
  a4:	00 20 00 
  a7:	48 09 d0             	or     %rdx,%rax
  aa:	eb 52                	jmp    fe <get_attr_pair_given_dist+0xb1>
  ac:	48 ba 00 00 00 00 ff 	movabs $0xffffffff00000000,%rdx
  b3:	ff ff ff 
  b6:	48 21 d0             	and    %rdx,%rax
  b9:	80 cc 03             	or     $0x3,%ah
  bc:	89 c0                	mov    %eax,%eax
  be:	eb 3e                	jmp    fe <get_attr_pair_given_dist+0xb1>
  c0:	8b 55 e8             	mov    -0x18(%rbp),%edx
  c3:	2b 55 fc             	sub    -0x4(%rbp),%edx
  c6:	39 55 ec             	cmp    %edx,-0x14(%rbp)
  c9:	7f 14                	jg     df <get_attr_pair_given_dist+0x92>
  cb:	48 ba 00 00 00 00 ff 	movabs $0xffffffff00000000,%rdx
  d2:	ff ff ff 
  d5:	48 21 d0             	and    %rdx,%rax
  d8:	80 cc 02             	or     $0x2,%ah
  db:	89 c0                	mov    %eax,%eax
  dd:	eb 1f                	jmp    fe <get_attr_pair_given_dist+0xb1>
  df:	48 ba 00 00 00 00 ff 	movabs $0xffffffff00000000,%rdx
  e6:	ff ff ff 
  e9:	48 21 d0             	and    %rdx,%rax
  ec:	80 cc 02             	or     $0x2,%ah
  ef:	89 c2                	mov    %eax,%edx
  f1:	48 b8 00 00 00 00 00 	movabs $0x10000000000000,%rax
  f8:	00 10 00 
  fb:	48 09 d0             	or     %rdx,%rax
  fe:	c9                   	leave
  ff:	c3                   	ret
